target datalayout = "e-m:e-p270:32:32-p271:32:32-p272:64:64-i64:64-i128:128-f80:128-n8:16:32:64-S128"
target triple = "x86_64-pc-linux-gnu"

%struct.object_id = type { [32 x i8], i32 }
%struct.option = type { i32, i32, ptr, ptr, ptr, ptr, i32, ptr, i64, ptr, i64, ptr }
%struct.commit = type { %struct.object, i64, ptr, ptr, i32 }
%struct.object = type { i32, %struct.object_id }
%struct.commit_list = type { ptr, ptr }

@the_repository = external global ptr, align 8
@.str.11 = private unnamed_addr constant [27 x i8] c"not a valid object name %s\00", align 1
@.str.14 = private unnamed_addr constant [22 x i8] c"builtin/commit-tree.c\00", align 1
@.str.15 = private unnamed_addr constant [41 x i8] c"option callback does not expect negation\00", align 1
@.str.16 = private unnamed_addr constant [36 x i8] c"option callback expects an argument\00", align 1
@.str.17 = private unnamed_addr constant [28 x i8] c"duplicate parent %s ignored\00", align 1

; Function Attrs: inlinehint nounwind uwtable
define internal i32 @const_error() #3 {
  ret i32 -1
}

; Function Attrs: nounwind uwtable
define internal void @new_parent(ptr noundef %0, ptr noundef %1) #0 {
  %3 = alloca ptr, align 8
  %4 = alloca ptr, align 8
  %5 = alloca ptr, align 8
  %6 = alloca ptr, align 8
  %7 = alloca i32, align 4
  store ptr %0, ptr %3, align 8, !tbaa !42
  store ptr %1, ptr %4, align 8, !tbaa !36
  call void @llvm.lifetime.start.p0(i64 8, ptr %5) #8
  %8 = load ptr, ptr %3, align 8, !tbaa !42
  %9 = getelementptr inbounds nuw %struct.commit, ptr %8, i32 0, i32 0
  %10 = getelementptr inbounds nuw %struct.object, ptr %9, i32 0, i32 1
  store ptr %10, ptr %5, align 8, !tbaa !44
  call void @llvm.lifetime.start.p0(i64 8, ptr %6) #8
  %11 = load ptr, ptr %4, align 8, !tbaa !36
  %12 = load ptr, ptr %11, align 8, !tbaa !15
  store ptr %12, ptr %6, align 8, !tbaa !15
  br label %13

13:                                               ; preds = %31, %2
  %14 = load ptr, ptr %6, align 8, !tbaa !15
  %15 = icmp ne ptr %14, null
  br i1 %15, label %16, label %35

16:                                               ; preds = %13
  %17 = load ptr, ptr %6, align 8, !tbaa !15
  %18 = getelementptr inbounds nuw %struct.commit_list, ptr %17, i32 0, i32 0
  %19 = load ptr, ptr %18, align 8, !tbaa !46
  %20 = load ptr, ptr %3, align 8, !tbaa !42
  %21 = icmp eq ptr %19, %20
  br i1 %21, label %22, label %28

22:                                               ; preds = %16
  %23 = call ptr @_(ptr noundef @.str.17)
  %24 = load ptr, ptr %5, align 8, !tbaa !44
  %25 = call ptr @oid_to_hex(ptr noundef %24)
  %26 = call i32 (ptr, ...) @error(ptr noundef %23, ptr noundef %25)
  %27 = call i32 @const_error()
  store i32 1, ptr %7, align 4
  br label %39

28:                                               ; preds = %16
  %29 = load ptr, ptr %6, align 8, !tbaa !15
  %30 = getelementptr inbounds nuw %struct.commit_list, ptr %29, i32 0, i32 1
  store ptr %30, ptr %4, align 8, !tbaa !36
  br label %31

31:                                               ; preds = %28
  %32 = load ptr, ptr %6, align 8, !tbaa !15
  %33 = getelementptr inbounds nuw %struct.commit_list, ptr %32, i32 0, i32 1
  %34 = load ptr, ptr %33, align 8, !tbaa !48
  store ptr %34, ptr %6, align 8, !tbaa !15
  br label %13, !llvm.loop !49

35:                                               ; preds = %13
  %36 = load ptr, ptr %3, align 8, !tbaa !42
  %37 = load ptr, ptr %4, align 8, !tbaa !36
  %38 = call ptr @commit_list_insert(ptr noundef %36, ptr noundef %37)
  store i32 0, ptr %7, align 4
  br label %39

39:                                               ; preds = %35, %22
  call void @llvm.lifetime.end.p0(i64 8, ptr %6) #8
  call void @llvm.lifetime.end.p0(i64 8, ptr %5) #8
  %40 = load i32, ptr %7, align 4
  switch i32 %40, label %42 [
    i32 0, label %41
    i32 1, label %41
  ]

41:                                               ; preds = %39, %39
  ret void

42:                                               ; preds = %39
  unreachable
}

; Function Attrs: nounwind uwtable
define internal i32 @parse_parent_arg_callback(ptr noundef %0, ptr noundef %1, i32 noundef %2) #0 {
  %4 = alloca ptr, align 8
  %5 = alloca ptr, align 8
  %6 = alloca i32, align 4
  %7 = alloca %struct.object_id, align 4
  %8 = alloca ptr, align 8
  store ptr %0, ptr %4, align 8, !tbaa !34
  store ptr %1, ptr %5, align 8, !tbaa !11
  store i32 %2, ptr %6, align 4, !tbaa !4
  call void @llvm.lifetime.start.p0(i64 36, ptr %7) #8
  call void @llvm.lifetime.start.p0(i64 8, ptr %8) #8
  %9 = load ptr, ptr %4, align 8, !tbaa !34
  %10 = getelementptr inbounds nuw %struct.option, ptr %9, i32 0, i32 3
  %11 = load ptr, ptr %10, align 8, !tbaa !22
  store ptr %11, ptr %8, align 8, !tbaa !36
  br label %12

12:                                               ; preds = %3
  br label %13

13:                                               ; preds = %12
  %14 = load i32, ptr %6, align 4, !tbaa !4
  %15 = icmp ne i32 %14, 0
  br i1 %15, label %16, label %17

16:                                               ; preds = %13
  call void (ptr, i32, ptr, ...) @BUG_fl(ptr noundef @.str.14, i32 noundef 46, ptr noundef @.str.15) #9
  unreachable

17:                                               ; preds = %13
  br label %18

18:                                               ; preds = %17
  br label %19

19:                                               ; preds = %18
  %20 = load ptr, ptr %5, align 8, !tbaa !11
  %21 = icmp ne ptr %20, null
  br i1 %21, label %23, label %22

22:                                               ; preds = %19
  call void (ptr, i32, ptr, ...) @BUG_fl(ptr noundef @.str.14, i32 noundef 46, ptr noundef @.str.16) #9
  unreachable

23:                                               ; preds = %19
  br label %24

24:                                               ; preds = %23
  br label %25

25:                                               ; preds = %24
  %26 = load ptr, ptr @the_repository, align 8, !tbaa !13
  %27 = load ptr, ptr %5, align 8, !tbaa !11
  %28 = call i32 @repo_get_oid_commit(ptr noundef %26, ptr noundef %27, ptr noundef %7)
  %29 = icmp ne i32 %28, 0
  br i1 %29, label %30, label %33

30:                                               ; preds = %25
  %31 = call ptr @_(ptr noundef @.str.11)
  %32 = load ptr, ptr %5, align 8, !tbaa !11
  call void (ptr, ...) @die(ptr noundef %31, ptr noundef %32) #9
  unreachable

33:                                               ; preds = %25
  call void @assert_oid_type(ptr noundef %7, i32 noundef 1)
  %34 = load ptr, ptr @the_repository, align 8, !tbaa !13
  %35 = call ptr @lookup_commit(ptr noundef %34, ptr noundef %7)
  %36 = load ptr, ptr %8, align 8, !tbaa !36
  call void @new_parent(ptr noundef %35, ptr noundef %36)
  call void @llvm.lifetime.end.p0(i64 8, ptr %8) #8
  call void @llvm.lifetime.end.p0(i64 36, ptr %7) #8
  ret i32 0
}