; Function Attrs: nounwind uwtable
define internal noundef i32 @parse_parent_arg_callback(ptr noundef readonly captures(none) %0, ptr noundef %1, i32 noundef %2) #0 {
  %4 = alloca %struct.object_id, align 4
  call void @llvm.lifetime.start.p0(i64 36, ptr nonnull %4) #9
  %5 = getelementptr inbounds nuw i8, ptr %0, i64 16
  %6 = load ptr, ptr %5, align 8, !tbaa !16
  %.not = icmp eq i32 %2, 0
  br i1 %.not, label %8, label %7

7:                                                ; preds = %3
  tail call void (ptr, i32, ptr, ...) @BUG_fl(ptr noundef nonnull @.str.14, i32 noundef 46, ptr noundef nonnull @.str.15) #10
  unreachable

8:                                                ; preds = %3
  %.not5 = icmp eq ptr %1, null
  br i1 %.not5, label %9, label %10

9:                                                ; preds = %8
  tail call void (ptr, i32, ptr, ...) @BUG_fl(ptr noundef nonnull @.str.14, i32 noundef 46, ptr noundef nonnull @.str.16) #10
  unreachable

10:                                               ; preds = %8
  %11 = load ptr, ptr @the_repository, align 8, !tbaa !22
  %12 = call i32 @repo_get_oid_commit(ptr noundef %11, ptr noundef nonnull %1, ptr noundef nonnull %4) #9
  %.not6 = icmp eq i32 %12, 0
  br i1 %.not6, label %15, label %13

13:                                               ; preds = %10
  %14 = call fastcc ptr @_(ptr noundef nonnull @.str.11)
  call void (ptr, ...) @die(ptr noundef %14, ptr noundef nonnull %1) #10
  unreachable

15:                                               ; preds = %10
  call void @assert_oid_type(ptr noundef nonnull %4, i32 noundef 1) #9
  %16 = load ptr, ptr @the_repository, align 8, !tbaa !22
  %17 = call ptr @lookup_commit(ptr noundef %16, ptr noundef nonnull %4) #9
  %18 = getelementptr inbounds nuw i8, ptr %17, i64 4
  %.012.i = load ptr, ptr %6, align 8, !tbaa !4
  %.not13.i = icmp eq ptr %.012.i, null
  br i1 %.not13.i, label %._crit_edge.i, label %.lr.ph.i

19:                                               ; preds = %.lr.ph.i
  %20 = getelementptr inbounds nuw i8, ptr %.014.i, i64 8
  %.0.i = load ptr, ptr %20, align 8, !tbaa !4
  %.not.i = icmp eq ptr %.0.i, null
  br i1 %.not.i, label %._crit_edge.i.loopexit, label %.lr.ph.i, !llvm.loop !28

.lr.ph.i:                                         ; preds = %15, %19
  %.014.i = phi ptr [ %.0.i, %19 ], [ %.012.i, %15 ]
  %21 = load ptr, ptr %.014.i, align 8, !tbaa !30
  %22 = icmp eq ptr %21, %17
  br i1 %22, label %23, label %19

23:                                               ; preds = %.lr.ph.i
  %24 = load i32, ptr @git_gettext_enabled, align 4, !tbaa !33
  %.not4.i.i = icmp eq i32 %24, 0
  br i1 %.not4.i.i, label %_.exit.i, label %25

25:                                               ; preds = %23
  %26 = call ptr @dcgettext(ptr noundef null, ptr noundef nonnull @.str.17, i32 noundef 5) #9
  br label %_.exit.i

_.exit.i:                                         ; preds = %25, %23
  %.0.i.i = phi ptr [ %26, %25 ], [ @.str.17, %23 ]
  %27 = call ptr @oid_to_hex(ptr noundef nonnull %18) #9
  %28 = call i32 (ptr, ...) @error(ptr noundef %.0.i.i, ptr noundef %27) #9
  br label %new_parent.exit

._crit_edge.i.loopexit:                           ; preds = %19
  %29 = getelementptr inbounds nuw i8, ptr %.014.i, i64 8
  br label %._crit_edge.i

._crit_edge.i:                                    ; preds = %._crit_edge.i.loopexit, %15
  %.010.lcssa.i = phi ptr [ %6, %15 ], [ %29, %._crit_edge.i.loopexit ]
  %30 = call ptr @commit_list_insert(ptr noundef %17, ptr noundef nonnull %.010.lcssa.i) #9
  br label %new_parent.exit

new_parent.exit:                                  ; preds = %_.exit.i, %._crit_edge.i
  call void @llvm.lifetime.end.p0(i64 36, ptr nonnull %4) #9
  ret i32 0
}